; Function Attrs: mustprogress nofree norecurse nosync nounwind willreturn memory(argmem: write) uwtable
define void @_ZN12ErrorHandlerC2Ev(ptr nocapture noundef nonnull writeonly align 4 dereferenceable(14) %0) unnamed_addr #0 align 2 {
  store i32 0, ptr %0, align 4
  %2 = getelementptr inbounds i8, ptr %0, i64 4
  store i32 0, ptr %2, align 4
  %3 = getelementptr inbounds i8, ptr %0, i64 8
  store i8 1, ptr %3, align 4
  %4 = getelementptr inbounds i8, ptr %0, i64 9
  tail call void @llvm.memset.p0.i64(ptr noundef nonnull align 1 dereferenceable(5) %4, i8 0, i64 5, i1 false)
  ret void
}